target datalayout = "e-m:e-p270:32:32-p271:32:32-p272:64:64-i64:64-i128:128-f80:128-n8:16:32:64-S128"
target triple = "x86_64-pc-linux-gnu"

; Function Attrs: nounwind sspstrong uwtable
define hidden void @FLAC__fixed_restore_signal_wide_33bit(ptr noundef %0, i32 noundef %1, i32 noundef %2, ptr noundef %3) #0 {
  %5 = alloca ptr, align 8
  %6 = alloca i32, align 4
  %7 = alloca i32, align 4
  %8 = alloca ptr, align 8
  %9 = alloca i32, align 4
  %10 = alloca i32, align 4
  store ptr %0, ptr %5, align 8, !tbaa !3
  store i32 %1, ptr %6, align 4, !tbaa !8
  store i32 %2, ptr %7, align 4, !tbaa !8
  store ptr %3, ptr %8, align 8, !tbaa !20
  call void @llvm.lifetime.start.p0(i64 4, ptr %9) #5
  call void @llvm.lifetime.start.p0(i64 4, ptr %10) #5
  %11 = load i32, ptr %6, align 4, !tbaa !8
  store i32 %11, ptr %10, align 4, !tbaa !8
  %12 = load i32, ptr %7, align 4, !tbaa !8
  switch i32 %12, label %189 [
    i32 0, label %13
    i32 1, label %33
    i32 2, label %60
    i32 3, label %95
    i32 4, label %138
  ]

13:                                               ; preds = %4
  store i32 0, ptr %9, align 4, !tbaa !8
  br label %14

14:                                               ; preds = %29, %13
  %15 = load i32, ptr %9, align 4, !tbaa !8
  %16 = load i32, ptr %10, align 4, !tbaa !8
  %17 = icmp slt i32 %15, %16
  br i1 %17, label %18, label %32

18:                                               ; preds = %14
  %19 = load ptr, ptr %5, align 8, !tbaa !3
  %20 = load i32, ptr %9, align 4, !tbaa !8
  %21 = sext i32 %20 to i64
  %22 = getelementptr inbounds i32, ptr %19, i64 %21
  %23 = load i32, ptr %22, align 4, !tbaa !8
  %24 = sext i32 %23 to i64
  %25 = load ptr, ptr %8, align 8, !tbaa !20
  %26 = load i32, ptr %9, align 4, !tbaa !8
  %27 = sext i32 %26 to i64
  %28 = getelementptr inbounds i64, ptr %25, i64 %27
  store i64 %24, ptr %28, align 8, !tbaa !16
  br label %29

29:                                               ; preds = %18
  %30 = load i32, ptr %9, align 4, !tbaa !8
  %31 = add nsw i32 %30, 1
  store i32 %31, ptr %9, align 4, !tbaa !8
  br label %14, !llvm.loop !45

32:                                               ; preds = %14
  br label %190

33:                                               ; preds = %4
  store i32 0, ptr %9, align 4, !tbaa !8
  br label %34

34:                                               ; preds = %56, %33
  %35 = load i32, ptr %9, align 4, !tbaa !8
  %36 = load i32, ptr %10, align 4, !tbaa !8
  %37 = icmp slt i32 %35, %36
  br i1 %37, label %38, label %59

38:                                               ; preds = %34
  %39 = load ptr, ptr %5, align 8, !tbaa !3
  %40 = load i32, ptr %9, align 4, !tbaa !8
  %41 = sext i32 %40 to i64
  %42 = getelementptr inbounds i32, ptr %39, i64 %41
  %43 = load i32, ptr %42, align 4, !tbaa !8
  %44 = sext i32 %43 to i64
  %45 = load ptr, ptr %8, align 8, !tbaa !20
  %46 = load i32, ptr %9, align 4, !tbaa !8
  %47 = sub nsw i32 %46, 1
  %48 = sext i32 %47 to i64
  %49 = getelementptr inbounds i64, ptr %45, i64 %48
  %50 = load i64, ptr %49, align 8, !tbaa !16
  %51 = add nsw i64 %44, %50
  %52 = load ptr, ptr %8, align 8, !tbaa !20
  %53 = load i32, ptr %9, align 4, !tbaa !8
  %54 = sext i32 %53 to i64
  %55 = getelementptr inbounds i64, ptr %52, i64 %54
  store i64 %51, ptr %55, align 8, !tbaa !16
  br label %56

56:                                               ; preds = %38
  %57 = load i32, ptr %9, align 4, !tbaa !8
  %58 = add nsw i32 %57, 1
  store i32 %58, ptr %9, align 4, !tbaa !8
  br label %34, !llvm.loop !46

59:                                               ; preds = %34
  br label %190

60:                                               ; preds = %4
  store i32 0, ptr %9, align 4, !tbaa !8
  br label %61

61:                                               ; preds = %91, %60
  %62 = load i32, ptr %9, align 4, !tbaa !8
  %63 = load i32, ptr %10, align 4, !tbaa !8
  %64 = icmp slt i32 %62, %63
  br i1 %64, label %65, label %94

65:                                               ; preds = %61
  %66 = load ptr, ptr %5, align 8, !tbaa !3
  %67 = load i32, ptr %9, align 4, !tbaa !8
  %68 = sext i32 %67 to i64
  %69 = getelementptr inbounds i32, ptr %66, i64 %68
  %70 = load i32, ptr %69, align 4, !tbaa !8
  %71 = sext i32 %70 to i64
  %72 = load ptr, ptr %8, align 8, !tbaa !20
  %73 = load i32, ptr %9, align 4, !tbaa !8
  %74 = sub nsw i32 %73, 1
  %75 = sext i32 %74 to i64
  %76 = getelementptr inbounds i64, ptr %72, i64 %75
  %77 = load i64, ptr %76, align 8, !tbaa !16
  %78 = mul nsw i64 2, %77
  %79 = add nsw i64 %71, %78
  %80 = load ptr, ptr %8, align 8, !tbaa !20
  %81 = load i32, ptr %9, align 4, !tbaa !8
  %82 = sub nsw i32 %81, 2
  %83 = sext i32 %82 to i64
  %84 = getelementptr inbounds i64, ptr %80, i64 %83
  %85 = load i64, ptr %84, align 8, !tbaa !16
  %86 = sub nsw i64 %79, %85
  %87 = load ptr, ptr %8, align 8, !tbaa !20
  %88 = load i32, ptr %9, align 4, !tbaa !8
  %89 = sext i32 %88 to i64
  %90 = getelementptr inbounds i64, ptr %87, i64 %89
  store i64 %86, ptr %90, align 8, !tbaa !16
  br label %91

91:                                               ; preds = %65
  %92 = load i32, ptr %9, align 4, !tbaa !8
  %93 = add nsw i32 %92, 1
  store i32 %93, ptr %9, align 4, !tbaa !8
  br label %61, !llvm.loop !47

94:                                               ; preds = %61
  br label %190

95:                                               ; preds = %4
  store i32 0, ptr %9, align 4, !tbaa !8
  br label %96

96:                                               ; preds = %134, %95
  %97 = load i32, ptr %9, align 4, !tbaa !8
  %98 = load i32, ptr %10, align 4, !tbaa !8
  %99 = icmp slt i32 %97, %98
  br i1 %99, label %100, label %137

100:                                              ; preds = %96
  %101 = load ptr, ptr %5, align 8, !tbaa !3
  %102 = load i32, ptr %9, align 4, !tbaa !8
  %103 = sext i32 %102 to i64
  %104 = getelementptr inbounds i32, ptr %101, i64 %103
  %105 = load i32, ptr %104, align 4, !tbaa !8
  %106 = sext i32 %105 to i64
  %107 = load ptr, ptr %8, align 8, !tbaa !20
  %108 = load i32, ptr %9, align 4, !tbaa !8
  %109 = sub nsw i32 %108, 1
  %110 = sext i32 %109 to i64
  %111 = getelementptr inbounds i64, ptr %107, i64 %110
  %112 = load i64, ptr %111, align 8, !tbaa !16
  %113 = mul nsw i64 3, %112
  %114 = add nsw i64 %106, %113
  %115 = load ptr, ptr %8, align 8, !tbaa !20
  %116 = load i32, ptr %9, align 4, !tbaa !8
  %117 = sub nsw i32 %116, 2
  %118 = sext i32 %117 to i64
  %119 = getelementptr inbounds i64, ptr %115, i64 %118
  %120 = load i64, ptr %119, align 8, !tbaa !16
  %121 = mul nsw i64 3, %120
  %122 = sub nsw i64 %114, %121
  %123 = load ptr, ptr %8, align 8, !tbaa !20
  %124 = load i32, ptr %9, align 4, !tbaa !8
  %125 = sub nsw i32 %124, 3
  %126 = sext i32 %125 to i64
  %127 = getelementptr inbounds i64, ptr %123, i64 %126
  %128 = load i64, ptr %127, align 8, !tbaa !16
  %129 = add nsw i64 %122, %128
  %130 = load ptr, ptr %8, align 8, !tbaa !20
  %131 = load i32, ptr %9, align 4, !tbaa !8
  %132 = sext i32 %131 to i64
  %133 = getelementptr inbounds i64, ptr %130, i64 %132
  store i64 %129, ptr %133, align 8, !tbaa !16
  br label %134

134:                                              ; preds = %100
  %135 = load i32, ptr %9, align 4, !tbaa !8
  %136 = add nsw i32 %135, 1
  store i32 %136, ptr %9, align 4, !tbaa !8
  br label %96, !llvm.loop !48

137:                                              ; preds = %96
  br label %190

138:                                              ; preds = %4
  store i32 0, ptr %9, align 4, !tbaa !8
  br label %139

139:                                              ; preds = %185, %138
  %140 = load i32, ptr %9, align 4, !tbaa !8
  %141 = load i32, ptr %10, align 4, !tbaa !8
  %142 = icmp slt i32 %140, %141
  br i1 %142, label %143, label %188

143:                                              ; preds = %139
  %144 = load ptr, ptr %5, align 8, !tbaa !3
  %145 = load i32, ptr %9, align 4, !tbaa !8
  %146 = sext i32 %145 to i64
  %147 = getelementptr inbounds i32, ptr %144, i64 %146
  %148 = load i32, ptr %147, align 4, !tbaa !8
  %149 = sext i32 %148 to i64
  %150 = load ptr, ptr %8, align 8, !tbaa !20
  %151 = load i32, ptr %9, align 4, !tbaa !8
  %152 = sub nsw i32 %151, 1
  %153 = sext i32 %152 to i64
  %154 = getelementptr inbounds i64, ptr %150, i64 %153
  %155 = load i64, ptr %154, align 8, !tbaa !16
  %156 = mul nsw i64 4, %155
  %157 = add nsw i64 %149, %156
  %158 = load ptr, ptr %8, align 8, !tbaa !20
  %159 = load i32, ptr %9, align 4, !tbaa !8
  %160 = sub nsw i32 %159, 2
  %161 = sext i32 %160 to i64
  %162 = getelementptr inbounds i64, ptr %158, i64 %161
  %163 = load i64, ptr %162, align 8, !tbaa !16
  %164 = mul nsw i64 6, %163
  %165 = sub nsw i64 %157, %164
  %166 = load ptr, ptr %8, align 8, !tbaa !20
  %167 = load i32, ptr %9, align 4, !tbaa !8
  %168 = sub nsw i32 %167, 3
  %169 = sext i32 %168 to i64
  %170 = getelementptr inbounds i64, ptr %166, i64 %169
  %171 = load i64, ptr %170, align 8, !tbaa !16
  %172 = mul nsw i64 4, %171
  %173 = add nsw i64 %165, %172
  %174 = load ptr, ptr %8, align 8, !tbaa !20
  %175 = load i32, ptr %9, align 4, !tbaa !8
  %176 = sub nsw i32 %175, 4
  %177 = sext i32 %176 to i64
  %178 = getelementptr inbounds i64, ptr %174, i64 %177
  %179 = load i64, ptr %178, align 8, !tbaa !16
  %180 = sub nsw i64 %173, %179
  %181 = load ptr, ptr %8, align 8, !tbaa !20
  %182 = load i32, ptr %9, align 4, !tbaa !8
  %183 = sext i32 %182 to i64
  %184 = getelementptr inbounds i64, ptr %181, i64 %183
  store i64 %180, ptr %184, align 8, !tbaa !16
  br label %185

185:                                              ; preds = %143
  %186 = load i32, ptr %9, align 4, !tbaa !8
  %187 = add nsw i32 %186, 1
  store i32 %187, ptr %9, align 4, !tbaa !8
  br label %139, !llvm.loop !49

188:                                              ; preds = %139
  br label %190

189:                                              ; preds = %4
  br label %190

190:                                              ; preds = %189, %188, %137, %94, %59, %32
  call void @llvm.lifetime.end.p0(i64 4, ptr %10) #5
  call void @llvm.lifetime.end.p0(i64 4, ptr %9) #5
  ret void
}