; Function Attrs: nofree norecurse nosync nounwind sspstrong memory(argmem: readwrite) uwtable
define hidden void @FLAC__fixed_restore_signal_wide_33bit(ptr noundef readonly captures(none) %0, i32 noundef %1, i32 noundef %2, ptr noundef captures(none) %3) local_unnamed_addr #3 {
  switch i32 %2, label %.loopexit [
    i32 0, label %.preheader
    i32 1, label %.preheader61
    i32 2, label %.preheader63
    i32 3, label %.preheader65
    i32 4, label %.preheader67
  ]

.preheader67:                                     ; preds = %4
  %5 = icmp sgt i32 %1, 0
  br i1 %5, label %.lr.ph.preheader, label %.loopexit

.lr.ph.preheader:                                 ; preds = %.preheader67
  %wide.trip.count = zext nneg i32 %1 to i64
  %scevgep117 = getelementptr i8, ptr %3, i64 -8
  %load_initial118 = load i64, ptr %scevgep117, align 8
  br label %.lr.ph

.preheader65:                                     ; preds = %4
  %6 = icmp sgt i32 %1, 0
  br i1 %6, label %.lr.ph71.preheader, label %.loopexit

.lr.ph71.preheader:                               ; preds = %.preheader65
  %wide.trip.count86 = zext nneg i32 %1 to i64
  %scevgep114 = getelementptr i8, ptr %3, i64 -8
  %load_initial115 = load i64, ptr %scevgep114, align 8
  br label %.lr.ph71

.preheader63:                                     ; preds = %4
  %7 = icmp sgt i32 %1, 0
  br i1 %7, label %.lr.ph73.preheader, label %.loopexit

.lr.ph73.preheader:                               ; preds = %.preheader63
  %wide.trip.count91 = zext nneg i32 %1 to i64
  %scevgep111 = getelementptr i8, ptr %3, i64 -8
  %load_initial112 = load i64, ptr %scevgep111, align 8
  br label %.lr.ph73

.preheader61:                                     ; preds = %4
  %8 = icmp sgt i32 %1, 0
  br i1 %8, label %.lr.ph75.preheader, label %.loopexit

.lr.ph75.preheader:                               ; preds = %.preheader61
  %wide.trip.count96 = zext nneg i32 %1 to i64
  %scevgep = getelementptr i8, ptr %3, i64 -8
  %load_initial = load i64, ptr %scevgep, align 8
  br label %.lr.ph75

.preheader:                                       ; preds = %4
  %9 = icmp sgt i32 %1, 0
  br i1 %9, label %.lr.ph77.preheader, label %.loopexit

.lr.ph77.preheader:                               ; preds = %.preheader
  %wide.trip.count101 = zext nneg i32 %1 to i64
  br label %.lr.ph77

.lr.ph77:                                         ; preds = %.lr.ph77.preheader, %.lr.ph77
  %indvars.iv98 = phi i64 [ 0, %.lr.ph77.preheader ], [ %indvars.iv.next99, %.lr.ph77 ]
  %10 = getelementptr inbounds nuw i32, ptr %0, i64 %indvars.iv98
  %11 = load i32, ptr %10, align 4, !tbaa !3
  %12 = sext i32 %11 to i64
  %13 = getelementptr inbounds nuw i64, ptr %3, i64 %indvars.iv98
  store i64 %12, ptr %13, align 8, !tbaa !13
  %indvars.iv.next99 = add nuw nsw i64 %indvars.iv98, 1
  %exitcond102.not = icmp eq i64 %indvars.iv.next99, %wide.trip.count101
  br i1 %exitcond102.not, label %.loopexit, label %.lr.ph77, !llvm.loop !37

.lr.ph75:                                         ; preds = %.lr.ph75.preheader, %.lr.ph75
  %store_forwarded = phi i64 [ %load_initial, %.lr.ph75.preheader ], [ %18, %.lr.ph75 ]
  %indvars.iv93 = phi i64 [ 0, %.lr.ph75.preheader ], [ %indvars.iv.next94, %.lr.ph75 ]
  %14 = getelementptr inbounds nuw i32, ptr %0, i64 %indvars.iv93
  %15 = load i32, ptr %14, align 4, !tbaa !3
  %16 = sext i32 %15 to i64
  %17 = getelementptr i64, ptr %3, i64 %indvars.iv93
  %18 = add nsw i64 %store_forwarded, %16
  store i64 %18, ptr %17, align 8, !tbaa !13
  %indvars.iv.next94 = add nuw nsw i64 %indvars.iv93, 1
  %exitcond97.not = icmp eq i64 %indvars.iv.next94, %wide.trip.count96
  br i1 %exitcond97.not, label %.loopexit, label %.lr.ph75, !llvm.loop !38

.lr.ph73:                                         ; preds = %.lr.ph73.preheader, %.lr.ph73
  %store_forwarded113 = phi i64 [ %load_initial112, %.lr.ph73.preheader ], [ %27, %.lr.ph73 ]
  %indvars.iv88 = phi i64 [ 0, %.lr.ph73.preheader ], [ %indvars.iv.next89, %.lr.ph73 ]
  %19 = getelementptr inbounds nuw i32, ptr %0, i64 %indvars.iv88
  %20 = load i32, ptr %19, align 4, !tbaa !3
  %21 = sext i32 %20 to i64
  %22 = getelementptr i64, ptr %3, i64 %indvars.iv88
  %23 = shl nsw i64 %store_forwarded113, 1
  %24 = add nsw i64 %23, %21
  %25 = getelementptr i8, ptr %22, i64 -16
  %26 = load i64, ptr %25, align 8, !tbaa !13
  %27 = sub i64 %24, %26
  store i64 %27, ptr %22, align 8, !tbaa !13
  %indvars.iv.next89 = add nuw nsw i64 %indvars.iv88, 1
  %exitcond92.not = icmp eq i64 %indvars.iv.next89, %wide.trip.count91
  br i1 %exitcond92.not, label %.loopexit, label %.lr.ph73, !llvm.loop !39

.lr.ph71:                                         ; preds = %.lr.ph71.preheader, %.lr.ph71
  %store_forwarded116 = phi i64 [ %load_initial115, %.lr.ph71.preheader ], [ %37, %.lr.ph71 ]
  %indvars.iv83 = phi i64 [ 0, %.lr.ph71.preheader ], [ %indvars.iv.next84, %.lr.ph71 ]
  %28 = getelementptr inbounds nuw i32, ptr %0, i64 %indvars.iv83
  %29 = load i32, ptr %28, align 4, !tbaa !3
  %30 = sext i32 %29 to i64
  %31 = getelementptr i64, ptr %3, i64 %indvars.iv83
  %32 = getelementptr i8, ptr %31, i64 -16
  %33 = load i64, ptr %32, align 8, !tbaa !13
  %34 = getelementptr i8, ptr %31, i64 -24
  %35 = load i64, ptr %34, align 8, !tbaa !13
  %reass.add58 = sub i64 %store_forwarded116, %33
  %reass.mul59 = mul i64 %reass.add58, 3
  %36 = add i64 %35, %30
  %37 = add i64 %36, %reass.mul59
  store i64 %37, ptr %31, align 8, !tbaa !13
  %indvars.iv.next84 = add nuw nsw i64 %indvars.iv83, 1
  %exitcond87.not = icmp eq i64 %indvars.iv.next84, %wide.trip.count86
  br i1 %exitcond87.not, label %.loopexit, label %.lr.ph71, !llvm.loop !40

.lr.ph:                                           ; preds = %.lr.ph.preheader, %.lr.ph
  %store_forwarded119 = phi i64 [ %load_initial118, %.lr.ph.preheader ], [ %50, %.lr.ph ]
  %indvars.iv = phi i64 [ 0, %.lr.ph.preheader ], [ %indvars.iv.next, %.lr.ph ]
  %38 = getelementptr inbounds nuw i32, ptr %0, i64 %indvars.iv
  %39 = load i32, ptr %38, align 4, !tbaa !3
  %40 = sext i32 %39 to i64
  %41 = getelementptr i64, ptr %3, i64 %indvars.iv
  %42 = getelementptr i8, ptr %41, i64 -16
  %43 = load i64, ptr %42, align 8, !tbaa !13
  %.neg = mul i64 %43, -6
  %44 = getelementptr i8, ptr %41, i64 -24
  %45 = load i64, ptr %44, align 8, !tbaa !13
  %46 = getelementptr i8, ptr %41, i64 -32
  %47 = load i64, ptr %46, align 8, !tbaa !13
  %reass.add = add i64 %45, %store_forwarded119
  %reass.mul = shl i64 %reass.add, 2
  %48 = add i64 %.neg, %40
  %49 = sub i64 %48, %47
  %50 = add i64 %49, %reass.mul
  store i64 %50, ptr %41, align 8, !tbaa !13
  %indvars.iv.next = add nuw nsw i64 %indvars.iv, 1
  %exitcond.not = icmp eq i64 %indvars.iv.next, %wide.trip.count
  br i1 %exitcond.not, label %.loopexit, label %.lr.ph, !llvm.loop !41

.loopexit:                                        ; preds = %.lr.ph, %.lr.ph71, %.lr.ph73, %.lr.ph75, %.lr.ph77, %.preheader67, %.preheader65, %.preheader63, %.preheader61, %.preheader, %4
  ret void
}